target datalayout = "e-m:e-p270:32:32-p271:32:32-p272:64:64-i64:64-i128:128-f80:128-n8:16:32:64-S128"
target triple = "x86_64-pc-linux-gnu"

%struct.Vec_Int_t_ = type { i32, i32, ptr }
%struct.Vec_Wec_t_ = type { i32, i32, ptr }

; Function Attrs: inlinehint nounwind uwtable
define internal i32 @Vec_IntSize(ptr noundef %0) #2 {
  %2 = alloca ptr, align 8
  store ptr %0, ptr %2, align 8, !tbaa !35
  %3 = load ptr, ptr %2, align 8, !tbaa !35
  %4 = getelementptr inbounds nuw %struct.Vec_Int_t_, ptr %3, i32 0, i32 1
  %5 = load i32, ptr %4, align 4, !tbaa !45
  ret i32 %5
}

; Function Attrs: inlinehint nounwind uwtable
define internal ptr @Vec_WecEntry(ptr noundef %0, i32 noundef %1) #2 {
  %3 = alloca ptr, align 8
  %4 = alloca i32, align 4
  store ptr %0, ptr %3, align 8, !tbaa !91
  store i32 %1, ptr %4, align 4, !tbaa !10
  %5 = load ptr, ptr %3, align 8, !tbaa !91
  %6 = getelementptr inbounds nuw %struct.Vec_Wec_t_, ptr %5, i32 0, i32 2
  %7 = load ptr, ptr %6, align 8, !tbaa !94
  %8 = load i32, ptr %4, align 4, !tbaa !10
  %9 = sext i32 %8 to i64
  %10 = getelementptr inbounds %struct.Vec_Int_t_, ptr %7, i64 %9
  ret ptr %10
}

; Function Attrs: nounwind uwtable
define i32 @Min_ManCountSize(ptr noundef %0, i32 noundef %1, i32 noundef %2) #0 {
  %4 = alloca ptr, align 8
  %5 = alloca i32, align 4
  %6 = alloca i32, align 4
  %7 = alloca ptr, align 8
  %8 = alloca i32, align 4
  %9 = alloca i32, align 4
  store ptr %0, ptr %4, align 8, !tbaa !91
  store i32 %1, ptr %5, align 4, !tbaa !10
  store i32 %2, ptr %6, align 4, !tbaa !10
  call void @llvm.lifetime.start.p0(i64 8, ptr %7) #13
  call void @llvm.lifetime.start.p0(i64 4, ptr %8) #13
  call void @llvm.lifetime.start.p0(i64 4, ptr %9) #13
  store i32 0, ptr %9, align 4, !tbaa !10
  %10 = load i32, ptr %5, align 4, !tbaa !10
  store i32 %10, ptr %8, align 4, !tbaa !10
  br label %11

11:                                               ; preds = %28, %3
  %12 = load i32, ptr %8, align 4, !tbaa !10
  %13 = load i32, ptr %6, align 4, !tbaa !10
  %14 = icmp slt i32 %12, %13
  br i1 %14, label %15, label %19

15:                                               ; preds = %11
  %16 = load ptr, ptr %4, align 8, !tbaa !91
  %17 = load i32, ptr %8, align 4, !tbaa !10
  %18 = call ptr @Vec_WecEntry(ptr noundef %16, i32 noundef %17)
  store ptr %18, ptr %7, align 8, !tbaa !35
  br label %19

19:                                               ; preds = %15, %11
  %20 = phi i1 [ false, %11 ], [ true, %15 ]
  br i1 %20, label %21, label %31

21:                                               ; preds = %19
  %22 = load ptr, ptr %7, align 8, !tbaa !35
  %23 = call i32 @Vec_IntSize(ptr noundef %22)
  %24 = icmp sgt i32 %23, 0
  %25 = zext i1 %24 to i32
  %26 = load i32, ptr %9, align 4, !tbaa !10
  %27 = add nsw i32 %26, %25
  store i32 %27, ptr %9, align 4, !tbaa !10
  br label %28

28:                                               ; preds = %21
  %29 = load i32, ptr %8, align 4, !tbaa !10
  %30 = add nsw i32 %29, 1
  store i32 %30, ptr %8, align 4, !tbaa !10
  br label %11, !llvm.loop !98

31:                                               ; preds = %19
  %32 = load i32, ptr %9, align 4, !tbaa !10
  call void @llvm.lifetime.end.p0(i64 4, ptr %9) #13
  call void @llvm.lifetime.end.p0(i64 4, ptr %8) #13
  call void @llvm.lifetime.end.p0(i64 8, ptr %7) #13
  ret i32 %32
}