; Function Attrs: nofree norecurse nosync nounwind memory(read, inaccessiblemem: none) uwtable
define i32 @Min_ManCountSize(ptr noundef readonly captures(none) %0, i32 noundef %1, i32 noundef %2) local_unnamed_addr #8 {
  %4 = icmp slt i32 %1, %2
  br i1 %4, label %.lr.ph, label %.critedge

.lr.ph:                                           ; preds = %3
  %5 = getelementptr i8, ptr %0, i64 8
  %.val9 = load ptr, ptr %5, align 8, !tbaa !95
  %6 = sext i32 %1 to i64
  %wide.trip.count = sext i32 %2 to i64
  br label %7

7:                                                ; preds = %.lr.ph, %7
  %indvars.iv = phi i64 [ %6, %.lr.ph ], [ %indvars.iv.next, %7 ]
  %.011 = phi i32 [ 0, %.lr.ph ], [ %11, %7 ]
  %8 = getelementptr %struct.Vec_Int_t_, ptr %.val9, i64 %indvars.iv, i32 1
  %.val = load i32, ptr %8, align 4, !tbaa !30
  %9 = icmp sgt i32 %.val, 0
  %10 = zext i1 %9 to i32
  %11 = add nuw nsw i32 %.011, %10
  %indvars.iv.next = add nsw i64 %indvars.iv, 1
  %exitcond.not = icmp eq i64 %indvars.iv.next, %wide.trip.count
  br i1 %exitcond.not, label %.critedge, label %7, !llvm.loop !102

.critedge:                                        ; preds = %7, %3
  %.0.lcssa = phi i32 [ 0, %3 ], [ %11, %7 ]
  ret i32 %.0.lcssa
}